; Function Attrs: nofree norecurse nosync nounwind memory(read, argmem: readwrite, inaccessiblemem: none) uwtable
define internal void @yuv2planeX_16LE_c(ptr noundef readonly captures(none) %0, i32 noundef %1, ptr noundef readonly captures(none) %2, ptr noundef writeonly captures(none) %3, i32 noundef %4, ptr readnone captures(none) %5, i32 %6) #3 {
  %8 = icmp sgt i32 %4, 0
  br i1 %8, label %.preheader.lr.ph, label %yuv2planeX_16_c_template.exit

.preheader.lr.ph:                                 ; preds = %7
  %9 = icmp sgt i32 %1, 0
  br i1 %9, label %.preheader.us.preheader, label %.preheader.preheader

.preheader.preheader:                             ; preds = %.preheader.lr.ph
  %10 = shl nuw i32 %4, 1
  %11 = zext i32 %10 to i64
  tail call void @llvm.memset.p0.i64(ptr align 1 %3, i8 0, i64 %11, i1 false), !tbaa !41
  br label %yuv2planeX_16_c_template.exit

.preheader.us.preheader:                          ; preds = %.preheader.lr.ph
  %wide.trip.count14 = zext nneg i32 %4 to i64
  %wide.trip.count = zext nneg i32 %1 to i64
  br label %.preheader.us

.preheader.us:                                    ; preds = %.preheader.us.preheader, %._crit_edge.us
  %indvars.iv11 = phi i64 [ 0, %.preheader.us.preheader ], [ %indvars.iv.next12, %._crit_edge.us ]
  br label %12

12:                                               ; preds = %.preheader.us, %12
  %indvars.iv = phi i64 [ 0, %.preheader.us ], [ %indvars.iv.next, %12 ]
  %.023.i5.us = phi i32 [ -1073725440, %.preheader.us ], [ %21, %12 ]
  %13 = getelementptr inbounds nuw ptr, ptr %2, i64 %indvars.iv
  %14 = load ptr, ptr %13, align 8, !tbaa !48
  %15 = getelementptr inbounds nuw i32, ptr %14, i64 %indvars.iv11
  %16 = load i32, ptr %15, align 4, !tbaa !49
  %17 = getelementptr inbounds nuw i16, ptr %0, i64 %indvars.iv
  %18 = load i16, ptr %17, align 2, !tbaa !39
  %19 = sext i16 %18 to i32
  %20 = mul i32 %16, %19
  %21 = add i32 %20, %.023.i5.us
  %indvars.iv.next = add nuw nsw i64 %indvars.iv, 1
  %exitcond.not = icmp eq i64 %indvars.iv.next, %wide.trip.count
  br i1 %exitcond.not, label %._crit_edge.us, label %12, !llvm.loop !50

._crit_edge.us:                                   ; preds = %12
  %22 = ashr i32 %21, 15
  %23 = tail call i32 @llvm.smax.i32(i32 %22, i32 -32768)
  %24 = tail call i32 @llvm.smin.i32(i32 %23, i32 32767)
  %.0.i4.us = trunc nsw i32 %24 to i16
  %25 = xor i16 %.0.i4.us, -32768
  %26 = getelementptr inbounds nuw i16, ptr %3, i64 %indvars.iv11
  store i16 %25, ptr %26, align 1, !tbaa !41
  %indvars.iv.next12 = add nuw nsw i64 %indvars.iv11, 1
  %exitcond15.not = icmp eq i64 %indvars.iv.next12, %wide.trip.count14
  br i1 %exitcond15.not, label %yuv2planeX_16_c_template.exit, label %.preheader.us, !llvm.loop !51

yuv2planeX_16_c_template.exit:                    ; preds = %._crit_edge.us, %.preheader.preheader, %7
  ret void
}